target datalayout = "e-m:e-p270:32:32-p271:32:32-p272:64:64-i64:64-i128:128-f80:128-n8:16:32:64-S128"
target triple = "x86_64-pc-linux-gnu"

@fix_linux_botches = internal global i8 0, align 1
@llc_cap_handle = internal global ptr null, align 8

; Function Attrs: inlinehint nounwind null_pointer_is_valid sspstrong uwtable
define internal zeroext i16 @pntoh16(ptr noundef %0) #8 {
  %2 = alloca ptr, align 8
  store ptr %0, ptr %2, align 8
  %3 = load ptr, ptr %2, align 8
  %4 = getelementptr i8, ptr %3, i64 0
  %5 = load i8, ptr %4, align 1
  %6 = zext i8 %5 to i16
  %7 = zext i16 %6 to i32
  %8 = shl i32 %7, 8
  %9 = load ptr, ptr %2, align 8
  %10 = getelementptr i8, ptr %9, i64 1
  %11 = load i8, ptr %10, align 1
  %12 = zext i8 %11 to i16
  %13 = zext i16 %12 to i32
  %14 = shl i32 %13, 0
  %15 = or i32 %8, %14
  %16 = trunc i32 %15 to i16
  ret i16 %16
}

; Function Attrs: nounwind null_pointer_is_valid sspstrong uwtable
define internal i32 @check_for_old_linux(ptr noundef %0) #12 {
  %2 = alloca i32, align 4
  %3 = alloca ptr, align 8
  %4 = alloca i32, align 4
  %5 = alloca i32, align 4
  store ptr %0, ptr %3, align 8
  call void @llvm.lifetime.start.p0(i64 4, ptr %4) #13
  store i32 1, ptr %4, align 4
  br label %6

6:                                                ; preds = %23, %1
  %7 = load i32, ptr %4, align 4
  %8 = icmp sle i32 %7, 18
  br i1 %8, label %9, label %26

9:                                                ; preds = %6
  %10 = load ptr, ptr %3, align 8
  %11 = getelementptr i8, ptr %10, i64 0
  %12 = load ptr, ptr %3, align 8
  %13 = load i32, ptr %4, align 4
  %14 = sext i32 %13 to i64
  %15 = getelementptr i8, ptr %12, i64 %14
  %16 = load i32, ptr %4, align 4
  %17 = sext i32 %16 to i64
  %18 = call i32 @memcmp(ptr noundef %11, ptr noundef %15, i64 noundef %17) #17
  %19 = icmp eq i32 %18, 0
  br i1 %19, label %20, label %22

20:                                               ; preds = %9
  %21 = load i32, ptr %4, align 4
  store i32 %21, ptr %2, align 4
  store i32 1, ptr %5, align 4
  br label %27

22:                                               ; preds = %9
  br label %23

23:                                               ; preds = %22
  %24 = load i32, ptr %4, align 4
  %25 = add i32 %24, 1
  store i32 %25, ptr %4, align 4
  br label %6, !llvm.loop !11

26:                                               ; preds = %6
  store i32 0, ptr %2, align 4
  store i32 1, ptr %5, align 4
  br label %27

27:                                               ; preds = %26, %20
  call void @llvm.lifetime.end.p0(i64 4, ptr %4) #13
  %28 = load i32, ptr %2, align 4
  ret i32 %28
}

; Function Attrs: null_pointer_is_valid sspstrong uwtable
define internal zeroext i1 @capture_tr(ptr noundef %0, i32 noundef %1, i32 noundef %2, ptr noundef %3, ptr noundef %4) #0 {
  %6 = alloca i1, align 1
  %7 = alloca ptr, align 8
  %8 = alloca i32, align 4
  %9 = alloca i32, align 4
  %10 = alloca ptr, align 8
  %11 = alloca ptr, align 8
  %12 = alloca i32, align 4
  %13 = alloca i32, align 4
  %14 = alloca i32, align 4
  %15 = alloca i8, align 1
  %16 = alloca i8, align 1
  %17 = alloca i16, align 2
  %18 = alloca i8, align 1
  %19 = alloca ptr, align 8
  %20 = alloca i32, align 4
  store ptr %0, ptr %7, align 8
  store i32 %1, ptr %8, align 4
  store i32 %2, ptr %9, align 4
  store ptr %3, ptr %10, align 8
  store ptr %4, ptr %11, align 8
  call void @llvm.lifetime.start.p0(i64 4, ptr %12) #13
  store i32 0, ptr %12, align 4
  call void @llvm.lifetime.start.p0(i64 4, ptr %13) #13
  call void @llvm.lifetime.start.p0(i64 4, ptr %14) #13
  call void @llvm.lifetime.start.p0(i64 1, ptr %15) #13
  call void @llvm.lifetime.start.p0(i64 1, ptr %16) #13
  call void @llvm.lifetime.start.p0(i64 2, ptr %17) #13
  call void @llvm.lifetime.start.p0(i64 1, ptr %18) #13
  call void @llvm.lifetime.start.p0(i64 8, ptr %19) #13
  %21 = load i32, ptr %8, align 4
  %22 = add i32 %21, 14
  %23 = load i32, ptr %8, align 4
  %24 = icmp ugt i32 %22, %23
  br i1 %24, label %25, label %30

25:                                               ; preds = %5
  %26 = load i32, ptr %8, align 4
  %27 = add i32 %26, 14
  %28 = load i32, ptr %9, align 4
  %29 = icmp ule i32 %27, %28
  br i1 %29, label %31, label %30

30:                                               ; preds = %25, %5
  store i1 false, ptr %6, align 1
  store i32 1, ptr %20, align 4
  br label %269

31:                                               ; preds = %25
  %32 = load ptr, ptr %7, align 8
  %33 = call i32 @check_for_old_linux(ptr noundef %32)
  store i32 %33, ptr %14, align 4
  %34 = icmp ne i32 %33, 0
  br i1 %34, label %35, label %39

35:                                               ; preds = %31
  %36 = load i32, ptr %14, align 4
  %37 = load i32, ptr %8, align 4
  %38 = add i32 %37, %36
  store i32 %38, ptr %8, align 4
  br label %39

39:                                               ; preds = %35, %31
  %40 = load ptr, ptr %7, align 8
  %41 = load i32, ptr %8, align 4
  %42 = add i32 %41, 1
  %43 = sext i32 %42 to i64
  %44 = getelementptr i8, ptr %40, i64 %43
  %45 = load i8, ptr %44, align 1
  store i8 %45, ptr %18, align 1
  %46 = load ptr, ptr %7, align 8
  %47 = load i32, ptr %8, align 4
  %48 = add i32 %47, 8
  %49 = sext i32 %48 to i64
  %50 = getelementptr i8, ptr %46, i64 %49
  store ptr %50, ptr %19, align 8
  %51 = load i8, ptr %18, align 1
  %52 = zext i8 %51 to i32
  %53 = and i32 %52, 192
  %54 = ashr i32 %53, 6
  store i32 %54, ptr %13, align 4
  %55 = load ptr, ptr %19, align 8
  %56 = getelementptr i8, ptr %55, i64 0
  %57 = load i8, ptr %56, align 1
  %58 = zext i8 %57 to i32
  %59 = and i32 %58, 128
  store i32 %59, ptr %12, align 4
  %60 = load ptr, ptr %7, align 8
  %61 = load i32, ptr %8, align 4
  %62 = add i32 %61, 14
  %63 = sext i32 %62 to i64
  %64 = getelementptr i8, ptr %60, i64 %63
  %65 = load i8, ptr %64, align 1
  %66 = zext i8 %65 to i32
  %67 = and i32 %66, 31
  %68 = trunc i32 %67 to i8
  store i8 %68, ptr %15, align 1
  %69 = load i8, ptr @fix_linux_botches, align 1, !range !6, !noundef !7
  %70 = trunc i8 %69 to i1
  br i1 %70, label %71, label %131

71:                                               ; preds = %39
  %72 = load i32, ptr %12, align 4
  %73 = icmp ne i32 %72, 0
  br i1 %73, label %130, label %74

74:                                               ; preds = %71
  %75 = load i8, ptr %15, align 1
  %76 = zext i8 %75 to i32
  %77 = icmp sgt i32 %76, 0
  br i1 %77, label %78, label %130

78:                                               ; preds = %74
  %79 = load ptr, ptr %7, align 8
  %80 = load i32, ptr %8, align 4
  %81 = add i32 %80, 14
  %82 = sext i32 %81 to i64
  %83 = getelementptr i8, ptr %79, i64 %82
  %84 = load i8, ptr %83, align 1
  %85 = zext i8 %84 to i32
  %86 = load ptr, ptr %7, align 8
  %87 = load i32, ptr %8, align 4
  %88 = add i32 %87, 15
  %89 = sext i32 %88 to i64
  %90 = getelementptr i8, ptr %86, i64 %89
  %91 = load i8, ptr %90, align 1
  %92 = zext i8 %91 to i32
  %93 = icmp ne i32 %85, %92
  br i1 %93, label %94, label %129

94:                                               ; preds = %78
  %95 = load ptr, ptr %7, align 8
  %96 = load i32, ptr %8, align 4
  %97 = add i32 %96, 224
  %98 = load i8, ptr %15, align 1
  %99 = zext i8 %98 to i32
  %100 = add i32 %97, %99
  %101 = sext i32 %100 to i64
  %102 = getelementptr i8, ptr %95, i64 %101
  %103 = call zeroext i16 @pntoh16(ptr noundef %102)
  store i16 %103, ptr %17, align 2
  %104 = load i16, ptr %17, align 2
  %105 = zext i16 %104 to i32
  %106 = icmp eq i32 %105, 43690
  br i1 %106, label %107, label %119

107:                                              ; preds = %94
  %108 = load ptr, ptr %7, align 8
  %109 = load i32, ptr %8, align 4
  %110 = add i32 %109, 16
  %111 = load i8, ptr %15, align 1
  %112 = zext i8 %111 to i32
  %113 = add i32 %110, %112
  %114 = sext i32 %113 to i64
  %115 = getelementptr i8, ptr %108, i64 %114
  %116 = load i8, ptr %115, align 1
  %117 = zext i8 %116 to i32
  %118 = icmp eq i32 %117, 3
  br i1 %118, label %127, label %119

119:                                              ; preds = %107, %94
  %120 = load i16, ptr %17, align 2
  %121 = zext i16 %120 to i32
  %122 = icmp eq i32 %121, 57568
  br i1 %122, label %127, label %123

123:                                              ; preds = %119
  %124 = load i16, ptr %17, align 2
  %125 = zext i16 %124 to i32
  %126 = icmp eq i32 %125, 57514
  br i1 %126, label %127, label %128

127:                                              ; preds = %123, %119, %107
  store i32 1, ptr %12, align 4
  br label %128

128:                                              ; preds = %127, %123
  br label %129

129:                                              ; preds = %128, %78
  br label %130

130:                                              ; preds = %129, %74, %71
  br label %131

131:                                              ; preds = %130, %39
  %132 = load i32, ptr %12, align 4
  %133 = icmp ne i32 %132, 0
  br i1 %133, label %134, label %136

134:                                              ; preds = %131
  %135 = load i8, ptr %15, align 1
  store i8 %135, ptr %16, align 1
  br label %137

136:                                              ; preds = %131
  store i8 0, ptr %15, align 1
  store i8 0, ptr %16, align 1
  br label %137

137:                                              ; preds = %136, %134
  %138 = load i8, ptr @fix_linux_botches, align 1, !range !6, !noundef !7
  %139 = trunc i8 %138 to i1
  br i1 %139, label %140, label %253

140:                                              ; preds = %137
  %141 = load i32, ptr %12, align 4
  %142 = icmp ne i32 %141, 0
  br i1 %142, label %143, label %150

143:                                              ; preds = %140
  %144 = load i8, ptr %15, align 1
  %145 = zext i8 %144 to i32
  %146 = icmp eq i32 %145, 2
  br i1 %146, label %147, label %150

147:                                              ; preds = %143
  %148 = load i32, ptr %13, align 4
  %149 = icmp eq i32 %148, 1
  br i1 %149, label %156, label %150

150:                                              ; preds = %147, %143, %140
  %151 = load i32, ptr %12, align 4
  %152 = icmp ne i32 %151, 0
  br i1 %152, label %252, label %153

153:                                              ; preds = %150
  %154 = load i32, ptr %13, align 4
  %155 = icmp eq i32 %154, 1
  br i1 %155, label %156, label %252

156:                                              ; preds = %153, %147
  %157 = load ptr, ptr %7, align 8
  %158 = load i32, ptr %8, align 4
  %159 = add i32 %158, 32
  %160 = sext i32 %159 to i64
  %161 = getelementptr i8, ptr %157, i64 %160
  %162 = load i8, ptr %161, align 1
  %163 = zext i8 %162 to i32
  %164 = icmp eq i32 %163, 170
  br i1 %164, label %165, label %183

165:                                              ; preds = %156
  %166 = load ptr, ptr %7, align 8
  %167 = load i32, ptr %8, align 4
  %168 = add i32 %167, 33
  %169 = sext i32 %168 to i64
  %170 = getelementptr i8, ptr %166, i64 %169
  %171 = load i8, ptr %170, align 1
  %172 = zext i8 %171 to i32
  %173 = icmp eq i32 %172, 170
  br i1 %173, label %174, label %183

174:                                              ; preds = %165
  %175 = load ptr, ptr %7, align 8
  %176 = load i32, ptr %8, align 4
  %177 = add i32 %176, 34
  %178 = sext i32 %177 to i64
  %179 = getelementptr i8, ptr %175, i64 %178
  %180 = load i8, ptr %179, align 1
  %181 = zext i8 %180 to i32
  %182 = icmp eq i32 %181, 3
  br i1 %182, label %201, label %183

183:                                              ; preds = %174, %165, %156
  %184 = load ptr, ptr %7, align 8
  %185 = load i32, ptr %8, align 4
  %186 = add i32 %185, 32
  %187 = sext i32 %186 to i64
  %188 = getelementptr i8, ptr %184, i64 %187
  %189 = load i8, ptr %188, align 1
  %190 = zext i8 %189 to i32
  %191 = icmp eq i32 %190, 224
  br i1 %191, label %192, label %202

192:                                              ; preds = %183
  %193 = load ptr, ptr %7, align 8
  %194 = load i32, ptr %8, align 4
  %195 = add i32 %194, 33
  %196 = sext i32 %195 to i64
  %197 = getelementptr i8, ptr %193, i64 %196
  %198 = load i8, ptr %197, align 1
  %199 = zext i8 %198 to i32
  %200 = icmp eq i32 %199, 224
  br i1 %200, label %201, label %202

201:                                              ; preds = %192, %174
  store i8 18, ptr %16, align 1
  br label %251

202:                                              ; preds = %192, %183
  %203 = load ptr, ptr %7, align 8
  %204 = load i32, ptr %8, align 4
  %205 = add i32 %204, 35
  %206 = sext i32 %205 to i64
  %207 = getelementptr i8, ptr %203, i64 %206
  %208 = load i8, ptr %207, align 1
  %209 = zext i8 %208 to i32
  %210 = icmp eq i32 %209, 0
  br i1 %210, label %211, label %250

211:                                              ; preds = %202
  %212 = load ptr, ptr %7, align 8
  %213 = load i32, ptr %8, align 4
  %214 = add i32 %213, 36
  %215 = sext i32 %214 to i64
  %216 = getelementptr i8, ptr %212, i64 %215
  %217 = load i8, ptr %216, align 1
  %218 = zext i8 %217 to i32
  %219 = icmp eq i32 %218, 0
  br i1 %219, label %220, label %250

220:                                              ; preds = %211
  %221 = load ptr, ptr %7, align 8
  %222 = load i32, ptr %8, align 4
  %223 = add i32 %222, 37
  %224 = sext i32 %223 to i64
  %225 = getelementptr i8, ptr %221, i64 %224
  %226 = load i8, ptr %225, align 1
  %227 = zext i8 %226 to i32
  %228 = icmp eq i32 %227, 0
  br i1 %228, label %229, label %250

229:                                              ; preds = %220
  %230 = load ptr, ptr %7, align 8
  %231 = load i32, ptr %8, align 4
  %232 = add i32 %231, 38
  %233 = sext i32 %232 to i64
  %234 = getelementptr i8, ptr %230, i64 %233
  %235 = load i8, ptr %234, align 1
  %236 = zext i8 %235 to i32
  %237 = icmp eq i32 %236, 0
  br i1 %237, label %238, label %250

238:                                              ; preds = %229
  %239 = load ptr, ptr %7, align 8
  %240 = load i32, ptr %8, align 4
  %241 = add i32 %240, 39
  %242 = sext i32 %241 to i64
  %243 = getelementptr i8, ptr %239, i64 %242
  %244 = load i8, ptr %243, align 1
  %245 = zext i8 %244 to i32
  %246 = icmp eq i32 %245, 17
  br i1 %246, label %247, label %250

247:                                              ; preds = %238
  store i8 18, ptr %16, align 1
  %248 = load i32, ptr %8, align 4
  %249 = add i32 %248, 8
  store i32 %249, ptr %8, align 4
  br label %250

250:                                              ; preds = %247, %238, %229, %220, %211, %202
  br label %251

251:                                              ; preds = %250, %201
  br label %252

252:                                              ; preds = %251, %153, %150
  br label %253

253:                                              ; preds = %252, %137
  %254 = load i8, ptr %16, align 1
  %255 = zext i8 %254 to i32
  %256 = add i32 %255, 14
  %257 = load i32, ptr %8, align 4
  %258 = add i32 %257, %256
  store i32 %258, ptr %8, align 4
  %259 = load i32, ptr %13, align 4
  switch i32 %259, label %268 [
    i32 1, label %260
  ]

260:                                              ; preds = %253
  %261 = load ptr, ptr @llc_cap_handle, align 8
  %262 = load ptr, ptr %7, align 8
  %263 = load i32, ptr %8, align 4
  %264 = load i32, ptr %9, align 4
  %265 = load ptr, ptr %10, align 8
  %266 = load ptr, ptr %11, align 8
  %267 = call zeroext i1 @call_capture_dissector(ptr noundef %261, ptr noundef %262, i32 noundef %263, i32 noundef %264, ptr noundef %265, ptr noundef %266)
  store i1 %267, ptr %6, align 1
  store i32 1, ptr %20, align 4
  br label %269

268:                                              ; preds = %253
  store i1 false, ptr %6, align 1
  store i32 1, ptr %20, align 4
  br label %269

269:                                              ; preds = %268, %260, %30
  call void @llvm.lifetime.end.p0(i64 8, ptr %19) #13
  call void @llvm.lifetime.end.p0(i64 1, ptr %18) #13
  call void @llvm.lifetime.end.p0(i64 2, ptr %17) #13
  call void @llvm.lifetime.end.p0(i64 1, ptr %16) #13
  call void @llvm.lifetime.end.p0(i64 1, ptr %15) #13
  call void @llvm.lifetime.end.p0(i64 4, ptr %14) #13
  call void @llvm.lifetime.end.p0(i64 4, ptr %13) #13
  call void @llvm.lifetime.end.p0(i64 4, ptr %12) #13
  %270 = load i1, ptr %6, align 1
  ret i1 %270
}