; Function Attrs: null_pointer_is_valid sspstrong uwtable
define internal zeroext i1 @capture_tr(ptr noundef %0, i32 noundef %1, i32 noundef %2, ptr noundef %3, ptr noundef %4) #0 {
  %6 = icmp ugt i32 %1, -15
  %7 = add i32 %1, 14
  %.not = icmp ugt i32 %7, %2
  %or.cond96 = or i1 %6, %.not
  br i1 %or.cond96, label %119, label %.preheader

.preheader:                                       ; preds = %5, %10
  %indvars.iv.i = phi i64 [ %indvars.iv.next.i, %10 ], [ 1, %5 ]
  %8 = getelementptr i8, ptr %0, i64 %indvars.iv.i
  %bcmp.i = tail call i32 @bcmp(ptr noundef readonly %0, ptr noundef readonly %8, i64 %indvars.iv.i)
  %9 = icmp eq i32 %bcmp.i, 0
  br i1 %9, label %.split.loop.exit10.i, label %10

10:                                               ; preds = %.preheader
  %indvars.iv.next.i = add nuw nsw i64 %indvars.iv.i, 1
  %exitcond.not.i = icmp eq i64 %indvars.iv.next.i, 19
  br i1 %exitcond.not.i, label %check_for_old_linux.exit, label %.preheader, !llvm.loop !11

.split.loop.exit10.i:                             ; preds = %.preheader
  %11 = trunc nuw nsw i64 %indvars.iv.i to i32
  br label %check_for_old_linux.exit

check_for_old_linux.exit:                         ; preds = %10, %.split.loop.exit10.i
  %.07.i = phi i32 [ %11, %.split.loop.exit10.i ], [ 0, %10 ]
  %12 = add i32 %.07.i, %1
  %13 = add i32 %12, 1
  %14 = sext i32 %13 to i64
  %15 = getelementptr i8, ptr %0, i64 %14
  %16 = load i8, ptr %15, align 1
  %17 = add i32 %12, 8
  %18 = sext i32 %17 to i64
  %19 = getelementptr i8, ptr %0, i64 %18
  %20 = lshr i8 %16, 6
  %21 = load i8, ptr %19, align 1
  %22 = and i8 %21, -128
  %23 = add i32 %12, 14
  %24 = sext i32 %23 to i64
  %25 = getelementptr i8, ptr %0, i64 %24
  %26 = load i8, ptr %25, align 1
  %27 = and i8 %26, 31
  %28 = load i8, ptr @fix_linux_botches, align 1, !range !6, !noundef !7
  %29 = trunc nuw i8 %28 to i1
  %30 = icmp eq i8 %22, 0
  br i1 %29, label %31, label %57

31:                                               ; preds = %check_for_old_linux.exit
  %32 = zext nneg i8 %27 to i32
  %33 = icmp ne i8 %27, 0
  %or.cond = select i1 %30, i1 %33, i1 false
  br i1 %or.cond, label %34, label %58

34:                                               ; preds = %31
  %35 = add i32 %12, 15
  %36 = sext i32 %35 to i64
  %37 = getelementptr i8, ptr %0, i64 %36
  %38 = load i8, ptr %37, align 1
  %.not95 = icmp eq i8 %26, %38
  br i1 %.not95, label %58, label %39

39:                                               ; preds = %34
  %40 = add i32 %12, 224
  %41 = add i32 %40, %32
  %42 = sext i32 %41 to i64
  %43 = getelementptr i8, ptr %0, i64 %42
  %.val = load i8, ptr %43, align 1
  %44 = getelementptr i8, ptr %43, i64 1
  %.val101 = load i8, ptr %44, align 1
  %45 = zext i8 %.val to i16
  %46 = shl nuw i16 %45, 8
  %47 = zext i8 %.val101 to i16
  %48 = or disjoint i16 %46, %47
  switch i16 %48, label %58 [
    i16 -21846, label %49
    i16 -7968, label %56
    i16 -8022, label %56
  ]

49:                                               ; preds = %39
  %50 = add i32 %12, 16
  %51 = add i32 %50, %32
  %52 = sext i32 %51 to i64
  %53 = getelementptr i8, ptr %0, i64 %52
  %54 = load i8, ptr %53, align 1
  %55 = icmp eq i8 %54, 3
  br i1 %55, label %56, label %58

56:                                               ; preds = %39, %39, %49
  br label %58

57:                                               ; preds = %check_for_old_linux.exit
  %. = select i1 %30, i8 0, i8 %27
  br label %114

58:                                               ; preds = %49, %39, %31, %56, %34
  %.083.shrunk.ph = phi i8 [ 0, %49 ], [ 0, %39 ], [ %22, %31 ], [ 0, %34 ], [ 1, %56 ]
  %.not116 = icmp eq i8 %.083.shrunk.ph, 0
  %.103 = select i1 %.not116, i8 0, i8 %27
  %59 = icmp eq i8 %.103, 2
  %60 = icmp eq i8 %20, 1
  %61 = select i1 %.not116, i1 true, i1 %59
  %or.cond98 = select i1 %61, i1 %60, i1 false
  br i1 %or.cond98, label %62, label %114

62:                                               ; preds = %58
  %63 = add i32 %12, 32
  %64 = sext i32 %63 to i64
  %65 = getelementptr i8, ptr %0, i64 %64
  %66 = load i8, ptr %65, align 1
  switch i8 %66, label %.thread107 [
    i8 -86, label %67
    i8 -32, label %79
  ]

67:                                               ; preds = %62
  %68 = add i32 %12, 33
  %69 = sext i32 %68 to i64
  %70 = getelementptr i8, ptr %0, i64 %69
  %71 = load i8, ptr %70, align 1
  %72 = icmp eq i8 %71, -86
  br i1 %72, label %73, label %.thread107

73:                                               ; preds = %67
  %74 = add i32 %12, 34
  %75 = sext i32 %74 to i64
  %76 = getelementptr i8, ptr %0, i64 %75
  %77 = load i8, ptr %76, align 1
  %78 = icmp eq i8 %77, 3
  br i1 %78, label %.thread109, label %.thread107

79:                                               ; preds = %62
  %80 = add i32 %12, 33
  %81 = sext i32 %80 to i64
  %82 = getelementptr i8, ptr %0, i64 %81
  %83 = load i8, ptr %82, align 1
  %84 = icmp eq i8 %83, -32
  br i1 %84, label %.thread109, label %.thread107

.thread107:                                       ; preds = %62, %67, %73, %79
  %85 = add i32 %12, 35
  %86 = sext i32 %85 to i64
  %87 = getelementptr i8, ptr %0, i64 %86
  %88 = load i8, ptr %87, align 1
  %89 = icmp eq i8 %88, 0
  br i1 %89, label %90, label %.thread109

90:                                               ; preds = %.thread107
  %91 = add i32 %12, 36
  %92 = sext i32 %91 to i64
  %93 = getelementptr i8, ptr %0, i64 %92
  %94 = load i8, ptr %93, align 1
  %95 = icmp eq i8 %94, 0
  br i1 %95, label %96, label %.thread109

96:                                               ; preds = %90
  %97 = add i32 %12, 37
  %98 = sext i32 %97 to i64
  %99 = getelementptr i8, ptr %0, i64 %98
  %100 = load i8, ptr %99, align 1
  %101 = icmp eq i8 %100, 0
  br i1 %101, label %102, label %.thread109

102:                                              ; preds = %96
  %103 = add i32 %12, 38
  %104 = sext i32 %103 to i64
  %105 = getelementptr i8, ptr %0, i64 %104
  %106 = load i8, ptr %105, align 1
  %107 = icmp eq i8 %106, 0
  br i1 %107, label %108, label %.thread109

108:                                              ; preds = %102
  %109 = add i32 %12, 39
  %110 = sext i32 %109 to i64
  %111 = getelementptr i8, ptr %0, i64 %110
  %112 = load i8, ptr %111, align 1
  %113 = icmp eq i8 %112, 17
  %spec.select99 = select i1 %113, i8 18, i8 %.103
  %spec.select100 = select i1 %113, i32 %17, i32 %12
  %.pre = add i32 %spec.select100, 14
  br label %.thread109

114:                                              ; preds = %57, %58
  %.185 = phi i8 [ %., %57 ], [ %.103, %58 ]
  %cond = icmp eq i8 %20, 1
  br i1 %cond, label %.thread109, label %119

.thread109:                                       ; preds = %102, %96, %90, %.thread107, %79, %73, %108, %114
  %.pre-phi = phi i32 [ %23, %102 ], [ %23, %96 ], [ %23, %90 ], [ %23, %.thread107 ], [ %23, %79 ], [ %23, %73 ], [ %.pre, %108 ], [ %23, %114 ]
  %.185113 = phi i8 [ %.103, %102 ], [ %.103, %96 ], [ %.103, %90 ], [ %.103, %.thread107 ], [ 18, %79 ], [ 18, %73 ], [ %spec.select99, %108 ], [ %.185, %114 ]
  %115 = zext nneg i8 %.185113 to i32
  %116 = add i32 %.pre-phi, %115
  %117 = load ptr, ptr @llc_cap_handle, align 8
  %118 = tail call zeroext i1 @call_capture_dissector(ptr noundef %117, ptr noundef %0, i32 noundef %116, i32 noundef %2, ptr noundef %3, ptr noundef %4)
  br label %119

119:                                              ; preds = %114, %5, %.thread109
  %.0 = phi i1 [ %118, %.thread109 ], [ false, %5 ], [ false, %114 ]
  ret i1 %.0
}